; Function Attrs: mustprogress nounwind uwtable
define hidden noundef i64 @_ZNK9metaspace12ChunkManager24calc_committed_word_sizeEv(ptr noundef nonnull align 8 dereferenceable(376) %0) local_unnamed_addr #0 align 2 {
  %2 = load ptr, ptr @Metaspace_lock, align 8
  %.not.i.i = icmp eq ptr %2, null
  br i1 %.not.i.i, label %_ZN11MutexLockerC2EP5MutexNS0_18SafepointCheckFlagE.exit.thread, label %5

_ZN11MutexLockerC2EP5MutexNS0_18SafepointCheckFlagE.exit.thread: ; preds = %1
  %3 = getelementptr inbounds i8, ptr %0, i64 16
  %4 = tail call noundef i64 @_ZNK9metaspace19FreeChunkListVector24calc_committed_word_sizeEv(ptr noundef nonnull align 8 dereferenceable(360) %3) #10
  br label %_ZN11MutexLockerD2Ev.exit

5:                                                ; preds = %1
  tail call void @_ZN5Mutex28lock_without_safepoint_checkEv(ptr noundef nonnull align 8 dereferenceable(104) %2) #10
  %6 = getelementptr inbounds i8, ptr %0, i64 16
  %7 = tail call noundef i64 @_ZNK9metaspace19FreeChunkListVector24calc_committed_word_sizeEv(ptr noundef nonnull align 8 dereferenceable(360) %6) #10
  tail call void @_ZN5Mutex6unlockEv(ptr noundef nonnull align 8 dereferenceable(104) %2) #10
  br label %_ZN11MutexLockerD2Ev.exit

_ZN11MutexLockerD2Ev.exit:                        ; preds = %_ZN11MutexLockerC2EP5MutexNS0_18SafepointCheckFlagE.exit.thread, %5
  %8 = phi i64 [ %4, %_ZN11MutexLockerC2EP5MutexNS0_18SafepointCheckFlagE.exit.thread ], [ %7, %5 ]
  ret i64 %8
}